target datalayout = "e-m:e-p270:32:32-p271:32:32-p272:64:64-i64:64-i128:128-f80:128-n8:16:32:64-S128"
target triple = "x86_64-pc-linux-gnu"

%class.OverlayScrollBar = type <{ %class.QScrollBar, ptr, ptr, %class.QScrollBar, %class.QImage, %class.QImage, i32, i32, i32, i32, i32, [4 x i8], %class.QList, i32, [4 x i8] }>
%class.QScrollBar = type { %class.QAbstractSlider }
%class.QAbstractSlider = type { %class.QWidget }
%class.QWidget = type { %class.QObject, %class.QPaintDevice.base, ptr }
%class.QObject = type { ptr, %class.QScopedPointer }
%class.QScopedPointer = type { ptr }
%class.QPaintDevice.base = type <{ ptr, i16 }>
%class.QImage = type { %class.QPaintDevice.base, ptr }
%class.QList = type { %struct.QArrayDataPointer }
%struct.QArrayDataPointer = type { ptr, ptr, i64 }
%class.QBasicAtomicInteger = type { %"struct.std::atomic" }
%"struct.std::atomic" = type { %"struct.std::__atomic_base" }
%"struct.std::__atomic_base" = type { i32 }
%struct.QArrayData = type { %class.QBasicAtomicInteger, %class.QFlags.17, i64 }
%class.QFlags.17 = type { i32 }

; Function Attrs: mustprogress nounwind uwtable
define linkonce_odr noundef i32 @_ZNSt13__atomic_baseIiEmmEv(ptr noundef nonnull align 4 dereferenceable(4) %0) #4 comdat align 2 {
  %2 = alloca ptr, align 8
  %3 = alloca i32, align 4
  %4 = alloca i32, align 4
  store ptr %0, ptr %2, align 8
  %5 = load ptr, ptr %2, align 8
  %6 = getelementptr inbounds %"struct.std::__atomic_base", ptr %5, i32 0, i32 0
  store i32 1, ptr %3, align 4
  %7 = load i32, ptr %3, align 4
  %8 = atomicrmw sub ptr %6, i32 %7 seq_cst, align 4
  %9 = sub i32 %8, %7
  store i32 %9, ptr %4, align 4
  %10 = load i32, ptr %4, align 4
  ret i32 %10
}

; Function Attrs: mustprogress nounwind uwtable
define linkonce_odr noundef i32 @_ZNSt13__atomic_baseIiEppEv(ptr noundef nonnull align 4 dereferenceable(4) %0) #4 comdat align 2 {
  %2 = alloca ptr, align 8
  %3 = alloca i32, align 4
  %4 = alloca i32, align 4
  store ptr %0, ptr %2, align 8
  %5 = load ptr, ptr %2, align 8
  %6 = getelementptr inbounds %"struct.std::__atomic_base", ptr %5, i32 0, i32 0
  store i32 1, ptr %3, align 4
  %7 = load i32, ptr %3, align 4
  %8 = atomicrmw add ptr %6, i32 %7 seq_cst, align 4
  %9 = add i32 %8, %7
  store i32 %9, ptr %4, align 4
  %10 = load i32, ptr %4, align 4
  ret i32 %10
}

; Function Attrs: mustprogress nounwind uwtable
define linkonce_odr noundef zeroext i1 @_ZN10QAtomicOpsIiE5derefIiEEbRSt6atomicIT_E(ptr noundef nonnull align 4 dereferenceable(4) %0) #4 comdat align 2 {
  %2 = alloca ptr, align 8
  store ptr %0, ptr %2, align 8
  %3 = load ptr, ptr %2, align 8
  %4 = call noundef i32 @_ZNSt13__atomic_baseIiEmmEv(ptr noundef nonnull align 4 dereferenceable(4) %3) #11
  %5 = icmp ne i32 %4, 0
  ret i1 %5
}

; Function Attrs: noreturn nounwind uwtable
define linkonce_odr hidden void @__clang_call_terminate(ptr noundef %0) #10 comdat {
  %2 = call ptr @__cxa_begin_catch(ptr %0) #11
  call void @_ZSt9terminatev() #14
  unreachable
}

; Function Attrs: mustprogress nounwind uwtable
define linkonce_odr noundef zeroext i1 @_ZN10QAtomicOpsIiE3refIiEEbRSt6atomicIT_E(ptr noundef nonnull align 4 dereferenceable(4) %0) #4 comdat align 2 {
  %2 = alloca ptr, align 8
  store ptr %0, ptr %2, align 8
  %3 = load ptr, ptr %2, align 8
  %4 = call noundef i32 @_ZNSt13__atomic_baseIiEppEv(ptr noundef nonnull align 4 dereferenceable(4) %3) #11
  %5 = icmp ne i32 %4, 0
  ret i1 %5
}

; Function Attrs: mustprogress nounwind uwtable
define linkonce_odr noundef zeroext i1 @_ZN19QBasicAtomicIntegerIiE5derefEv(ptr noundef nonnull align 4 dereferenceable(4) %0) #4 comdat align 2 {
  %2 = alloca ptr, align 8
  store ptr %0, ptr %2, align 8
  %3 = load ptr, ptr %2, align 8
  %4 = getelementptr inbounds %class.QBasicAtomicInteger, ptr %3, i32 0, i32 0
  %5 = call noundef zeroext i1 @_ZN10QAtomicOpsIiE5derefIiEEbRSt6atomicIT_E(ptr noundef nonnull align 4 dereferenceable(4) %4) #11
  ret i1 %5
}

; Function Attrs: mustprogress nounwind uwtable
define linkonce_odr noundef zeroext i1 @_ZN19QBasicAtomicIntegerIiE3refEv(ptr noundef nonnull align 4 dereferenceable(4) %0) #4 comdat align 2 personality ptr @__gxx_personality_v0 {
  %2 = alloca ptr, align 8
  store ptr %0, ptr %2, align 8
  %3 = load ptr, ptr %2, align 8
  %4 = getelementptr inbounds %class.QBasicAtomicInteger, ptr %3, i32 0, i32 0
  %5 = invoke noundef zeroext i1 @_ZN10QAtomicOpsIiE3refIiEEbRSt6atomicIT_E(ptr noundef nonnull align 4 dereferenceable(4) %4)
          to label %6 unwind label %7

6:                                                ; preds = %1
  ret i1 %5

7:                                                ; preds = %1
  %8 = landingpad { ptr, i32 }
          catch ptr null
  %9 = extractvalue { ptr, i32 } %8, 0
  call void @__clang_call_terminate(ptr %9) #14
  unreachable
}

; Function Attrs: mustprogress nounwind uwtable
define linkonce_odr noundef zeroext i1 @_ZN10QArrayData5derefEv(ptr noundef nonnull align 8 dereferenceable(16) %0) #4 comdat align 2 {
  %2 = alloca ptr, align 8
  store ptr %0, ptr %2, align 8
  %3 = load ptr, ptr %2, align 8
  %4 = getelementptr inbounds %struct.QArrayData, ptr %3, i32 0, i32 0
  %5 = call noundef zeroext i1 @_ZN19QBasicAtomicIntegerIiE5derefEv(ptr noundef nonnull align 4 dereferenceable(4) %4) #11
  ret i1 %5
}

; Function Attrs: mustprogress nounwind uwtable
define linkonce_odr noundef zeroext i1 @_ZN10QArrayData3refEv(ptr noundef nonnull align 8 dereferenceable(16) %0) #4 comdat align 2 {
  %2 = alloca ptr, align 8
  store ptr %0, ptr %2, align 8
  %3 = load ptr, ptr %2, align 8
  %4 = getelementptr inbounds %struct.QArrayData, ptr %3, i32 0, i32 0
  %5 = call noundef zeroext i1 @_ZN19QBasicAtomicIntegerIiE3refEv(ptr noundef nonnull align 4 dereferenceable(4) %4) #11
  ret i1 true
}

; Function Attrs: mustprogress nounwind uwtable
define linkonce_odr void @_ZN15QTypedArrayDataIiE10deallocateEP10QArrayData(ptr noundef %0) #4 comdat align 2 {
  %2 = alloca ptr, align 8
  store ptr %0, ptr %2, align 8
  %3 = load ptr, ptr %2, align 8
  call void @_ZN10QArrayData10deallocateEPS_xx(ptr noundef %3, i64 noundef 4, i64 noundef 8) #11
  ret void
}

; Function Attrs: mustprogress nounwind uwtable
define linkonce_odr void @_ZN9QtPrivate12QPodArrayOpsIiE10destroyAllEv(ptr noundef nonnull align 8 dereferenceable(24) %0) #4 comdat align 2 {
  %2 = alloca ptr, align 8
  store ptr %0, ptr %2, align 8
  ret void
}

; Function Attrs: mustprogress nounwind uwtable
define linkonce_odr noundef ptr @_ZN17QArrayDataPointerIiEptEv(ptr noundef nonnull align 8 dereferenceable(24) %0) #4 comdat align 2 {
  %2 = alloca ptr, align 8
  store ptr %0, ptr %2, align 8
  %3 = load ptr, ptr %2, align 8
  ret ptr %3
}

; Function Attrs: mustprogress nounwind uwtable
define linkonce_odr noundef zeroext i1 @_ZN17QArrayDataPointerIiE5derefEv(ptr noundef nonnull align 8 dereferenceable(24) %0) #4 comdat align 2 {
  %2 = alloca ptr, align 8
  store ptr %0, ptr %2, align 8
  %3 = load ptr, ptr %2, align 8
  %4 = getelementptr inbounds %struct.QArrayDataPointer, ptr %3, i32 0, i32 0
  %5 = load ptr, ptr %4, align 8
  %6 = icmp ne ptr %5, null
  br i1 %6, label %7, label %11

7:                                                ; preds = %1
  %8 = getelementptr inbounds %struct.QArrayDataPointer, ptr %3, i32 0, i32 0
  %9 = load ptr, ptr %8, align 8
  %10 = call noundef zeroext i1 @_ZN10QArrayData5derefEv(ptr noundef nonnull align 8 dereferenceable(16) %9) #11
  br label %11

11:                                               ; preds = %7, %1
  %12 = phi i1 [ true, %1 ], [ %10, %7 ]
  ret i1 %12
}

; Function Attrs: mustprogress nounwind uwtable
define linkonce_odr void @_ZSt4swapIxENSt9enable_ifIXsr6__and_ISt6__not_ISt15__is_tuple_likeIT_EESt21is_move_constructibleIS3_ESt18is_move_assignableIS3_EEE5valueEvE4typeERS3_SC_(ptr noundef nonnull align 8 dereferenceable(8) %0, ptr noundef nonnull align 8 dereferenceable(8) %1) #4 comdat {
  %3 = alloca ptr, align 8
  %4 = alloca ptr, align 8
  %5 = alloca i64, align 8
  store ptr %0, ptr %3, align 8
  store ptr %1, ptr %4, align 8
  %6 = load ptr, ptr %3, align 8
  %7 = load i64, ptr %6, align 8
  store i64 %7, ptr %5, align 8
  %8 = load ptr, ptr %4, align 8
  %9 = load i64, ptr %8, align 8
  %10 = load ptr, ptr %3, align 8
  store i64 %9, ptr %10, align 8
  %11 = load i64, ptr %5, align 8
  %12 = load ptr, ptr %4, align 8
  store i64 %11, ptr %12, align 8
  ret void
}

; Function Attrs: mustprogress nounwind uwtable
define linkonce_odr void @_Z11qt_ptr_swapIiEvRPT_S2_(ptr noundef nonnull align 8 dereferenceable(8) %0, ptr noundef nonnull align 8 dereferenceable(8) %1) #4 comdat {
  %3 = alloca ptr, align 8
  %4 = alloca ptr, align 8
  %5 = alloca ptr, align 8
  store ptr %0, ptr %3, align 8
  store ptr %1, ptr %4, align 8
  %6 = load ptr, ptr %3, align 8
  %7 = load ptr, ptr %6, align 8
  store ptr %7, ptr %5, align 8
  %8 = load ptr, ptr %4, align 8
  %9 = load ptr, ptr %8, align 8
  %10 = load ptr, ptr %3, align 8
  store ptr %9, ptr %10, align 8
  %11 = load ptr, ptr %5, align 8
  %12 = load ptr, ptr %4, align 8
  store ptr %11, ptr %12, align 8
  ret void
}

; Function Attrs: mustprogress nounwind uwtable
define linkonce_odr void @_Z11qt_ptr_swapI15QTypedArrayDataIiEEvRPT_S4_(ptr noundef nonnull align 8 dereferenceable(8) %0, ptr noundef nonnull align 8 dereferenceable(8) %1) #4 comdat {
  %3 = alloca ptr, align 8
  %4 = alloca ptr, align 8
  %5 = alloca ptr, align 8
  store ptr %0, ptr %3, align 8
  store ptr %1, ptr %4, align 8
  %6 = load ptr, ptr %3, align 8
  %7 = load ptr, ptr %6, align 8
  store ptr %7, ptr %5, align 8
  %8 = load ptr, ptr %4, align 8
  %9 = load ptr, ptr %8, align 8
  %10 = load ptr, ptr %3, align 8
  store ptr %9, ptr %10, align 8
  %11 = load ptr, ptr %5, align 8
  %12 = load ptr, ptr %4, align 8
  store ptr %11, ptr %12, align 8
  ret void
}

; Function Attrs: mustprogress nounwind uwtable
define linkonce_odr void @_ZN17QArrayDataPointerIiE3refEv(ptr noundef nonnull align 8 dereferenceable(24) %0) #4 comdat align 2 {
  %2 = alloca ptr, align 8
  store ptr %0, ptr %2, align 8
  %3 = load ptr, ptr %2, align 8
  %4 = getelementptr inbounds %struct.QArrayDataPointer, ptr %3, i32 0, i32 0
  %5 = load ptr, ptr %4, align 8
  %6 = icmp ne ptr %5, null
  br i1 %6, label %7, label %11

7:                                                ; preds = %1
  %8 = getelementptr inbounds %struct.QArrayDataPointer, ptr %3, i32 0, i32 0
  %9 = load ptr, ptr %8, align 8
  %10 = call noundef zeroext i1 @_ZN10QArrayData3refEv(ptr noundef nonnull align 8 dereferenceable(16) %9) #11
  br label %11

11:                                               ; preds = %7, %1
  ret void
}

; Function Attrs: mustprogress nounwind uwtable
define linkonce_odr void @_ZN17QArrayDataPointerIiED2Ev(ptr noundef nonnull align 8 dereferenceable(24) %0) unnamed_addr #4 comdat align 2 {
  %2 = alloca ptr, align 8
  store ptr %0, ptr %2, align 8
  %3 = load ptr, ptr %2, align 8
  %4 = call noundef zeroext i1 @_ZN17QArrayDataPointerIiE5derefEv(ptr noundef nonnull align 8 dereferenceable(24) %3) #11
  br i1 %4, label %9, label %5

5:                                                ; preds = %1
  %6 = call noundef ptr @_ZN17QArrayDataPointerIiEptEv(ptr noundef nonnull align 8 dereferenceable(24) %3) #11
  call void @_ZN9QtPrivate12QPodArrayOpsIiE10destroyAllEv(ptr noundef nonnull align 8 dereferenceable(24) %6) #11
  %7 = getelementptr inbounds %struct.QArrayDataPointer, ptr %3, i32 0, i32 0
  %8 = load ptr, ptr %7, align 8
  call void @_ZN15QTypedArrayDataIiE10deallocateEP10QArrayData(ptr noundef %8) #11
  br label %9

9:                                                ; preds = %5, %1
  ret void
}

; Function Attrs: mustprogress nounwind uwtable
define linkonce_odr void @_ZN17QArrayDataPointerIiE4swapERS0_(ptr noundef nonnull align 8 dereferenceable(24) %0, ptr noundef nonnull align 8 dereferenceable(24) %1) #4 comdat align 2 {
  %3 = alloca ptr, align 8
  %4 = alloca ptr, align 8
  store ptr %0, ptr %3, align 8
  store ptr %1, ptr %4, align 8
  %5 = load ptr, ptr %3, align 8
  %6 = getelementptr inbounds %struct.QArrayDataPointer, ptr %5, i32 0, i32 0
  %7 = load ptr, ptr %4, align 8
  %8 = getelementptr inbounds %struct.QArrayDataPointer, ptr %7, i32 0, i32 0
  call void @_Z11qt_ptr_swapI15QTypedArrayDataIiEEvRPT_S4_(ptr noundef nonnull align 8 dereferenceable(8) %6, ptr noundef nonnull align 8 dereferenceable(8) %8) #11
  %9 = getelementptr inbounds %struct.QArrayDataPointer, ptr %5, i32 0, i32 1
  %10 = load ptr, ptr %4, align 8
  %11 = getelementptr inbounds %struct.QArrayDataPointer, ptr %10, i32 0, i32 1
  call void @_Z11qt_ptr_swapIiEvRPT_S2_(ptr noundef nonnull align 8 dereferenceable(8) %9, ptr noundef nonnull align 8 dereferenceable(8) %11) #11
  %12 = getelementptr inbounds %struct.QArrayDataPointer, ptr %5, i32 0, i32 2
  %13 = load ptr, ptr %4, align 8
  %14 = getelementptr inbounds %struct.QArrayDataPointer, ptr %13, i32 0, i32 2
  call void @_ZSt4swapIxENSt9enable_ifIXsr6__and_ISt6__not_ISt15__is_tuple_likeIT_EESt21is_move_constructibleIS3_ESt18is_move_assignableIS3_EEE5valueEvE4typeERS3_SC_(ptr noundef nonnull align 8 dereferenceable(8) %12, ptr noundef nonnull align 8 dereferenceable(8) %14) #11
  ret void
}

; Function Attrs: mustprogress nounwind uwtable
define linkonce_odr void @_ZN17QArrayDataPointerIiEC2ERKS0_(ptr noundef nonnull align 8 dereferenceable(24) %0, ptr noundef nonnull align 8 dereferenceable(24) %1) unnamed_addr #4 comdat align 2 {
  %3 = alloca ptr, align 8
  %4 = alloca ptr, align 8
  store ptr %0, ptr %3, align 8
  store ptr %1, ptr %4, align 8
  %5 = load ptr, ptr %3, align 8
  %6 = getelementptr inbounds %struct.QArrayDataPointer, ptr %5, i32 0, i32 0
  %7 = load ptr, ptr %4, align 8
  %8 = getelementptr inbounds %struct.QArrayDataPointer, ptr %7, i32 0, i32 0
  %9 = load ptr, ptr %8, align 8
  store ptr %9, ptr %6, align 8
  %10 = getelementptr inbounds %struct.QArrayDataPointer, ptr %5, i32 0, i32 1
  %11 = load ptr, ptr %4, align 8
  %12 = getelementptr inbounds %struct.QArrayDataPointer, ptr %11, i32 0, i32 1
  %13 = load ptr, ptr %12, align 8
  store ptr %13, ptr %10, align 8
  %14 = getelementptr inbounds %struct.QArrayDataPointer, ptr %5, i32 0, i32 2
  %15 = load ptr, ptr %4, align 8
  %16 = getelementptr inbounds %struct.QArrayDataPointer, ptr %15, i32 0, i32 2
  %17 = load i64, ptr %16, align 8
  store i64 %17, ptr %14, align 8
  call void @_ZN17QArrayDataPointerIiE3refEv(ptr noundef nonnull align 8 dereferenceable(24) %5) #11
  ret void
}

; Function Attrs: mustprogress nounwind uwtable
define linkonce_odr noundef double @_ZN12QPaintDevice22devicePixelRatioFScaleEv() #4 comdat align 2 {
  ret double 6.553600e+04
}

; Function Attrs: mustprogress nounwind uwtable
define linkonce_odr noundef nonnull align 8 dereferenceable(24) ptr @_ZN17QArrayDataPointerIiEaSERKS0_(ptr noundef nonnull align 8 dereferenceable(24) %0, ptr noundef nonnull align 8 dereferenceable(24) %1) #4 comdat align 2 {
  %3 = alloca ptr, align 8
  %4 = alloca ptr, align 8
  %5 = alloca %struct.QArrayDataPointer, align 8
  store ptr %0, ptr %3, align 8
  store ptr %1, ptr %4, align 8
  %6 = load ptr, ptr %3, align 8
  %7 = load ptr, ptr %4, align 8
  call void @_ZN17QArrayDataPointerIiEC2ERKS0_(ptr noundef nonnull align 8 dereferenceable(24) %5, ptr noundef nonnull align 8 dereferenceable(24) %7) #11
  call void @_ZN17QArrayDataPointerIiE4swapERS0_(ptr noundef nonnull align 8 dereferenceable(24) %6, ptr noundef nonnull align 8 dereferenceable(24) %5) #11
  call void @_ZN17QArrayDataPointerIiED2Ev(ptr noundef nonnull align 8 dereferenceable(24) %5) #11
  ret ptr %6
}

; Function Attrs: mustprogress uwtable
define linkonce_odr noundef double @_ZNK12QPaintDevice16devicePixelRatioEv(ptr noundef nonnull align 8 dereferenceable(10) %0) #0 comdat align 2 {
  %2 = alloca ptr, align 8
  store ptr %0, ptr %2, align 8
  %3 = load ptr, ptr %2, align 8
  %4 = load ptr, ptr %3, align 8
  %5 = getelementptr inbounds ptr, ptr %4, i64 4
  %6 = load ptr, ptr %5, align 8
  %7 = call noundef i32 %6(ptr noundef nonnull align 8 dereferenceable(10) %3, i32 noundef 12)
  %8 = sitofp i32 %7 to double
  %9 = call noundef double @_ZN12QPaintDevice22devicePixelRatioFScaleEv()
  %10 = fdiv double %8, %9
  ret double %10
}

; Function Attrs: mustprogress nounwind uwtable
define linkonce_odr noundef nonnull align 8 dereferenceable(24) ptr @_ZN5QListIiEaSERKS0_(ptr noundef nonnull align 8 dereferenceable(24) %0, ptr noundef nonnull align 8 dereferenceable(24) %1) #4 comdat align 2 {
  %3 = alloca ptr, align 8
  %4 = alloca ptr, align 8
  store ptr %0, ptr %3, align 8
  store ptr %1, ptr %4, align 8
  %5 = load ptr, ptr %3, align 8
  %6 = getelementptr inbounds %class.QList, ptr %5, i32 0, i32 0
  %7 = load ptr, ptr %4, align 8
  %8 = getelementptr inbounds %class.QList, ptr %7, i32 0, i32 0
  %9 = call noundef nonnull align 8 dereferenceable(24) ptr @_ZN17QArrayDataPointerIiEaSERKS0_(ptr noundef nonnull align 8 dereferenceable(24) %6, ptr noundef nonnull align 8 dereferenceable(24) %8) #11
  ret ptr %5
}

; Function Attrs: mustprogress uwtable
define void @_ZN16OverlayScrollBar19setNearOverlayImageER6QImageiii5QListIiEi(ptr noundef nonnull align 8 dereferenceable(196) %0, ptr noundef nonnull align 8 dereferenceable(24) %1, i32 noundef %2, i32 noundef %3, i32 noundef %4, ptr noundef %5, i32 noundef %6) #0 align 2 {
  %8 = alloca ptr, align 8
  %9 = alloca ptr, align 8
  %10 = alloca i32, align 4
  %11 = alloca i32, align 4
  %12 = alloca i32, align 4
  %13 = alloca ptr, align 8
  %14 = alloca i32, align 4
  %15 = alloca i32, align 4
  %16 = alloca double, align 8
  store ptr %0, ptr %8, align 8
  store ptr %1, ptr %9, align 8
  store i32 %2, ptr %10, align 4
  store i32 %3, ptr %11, align 4
  store i32 %4, ptr %12, align 4
  store ptr %5, ptr %13, align 8
  store i32 %6, ptr %14, align 4
  %17 = load ptr, ptr %8, align 8
  %18 = getelementptr inbounds %class.OverlayScrollBar, ptr %17, i32 0, i32 4
  %19 = call noundef i32 @_ZNK6QImage5widthEv(ptr noundef nonnull align 8 dereferenceable(24) %18)
  store i32 %19, ptr %15, align 4
  %20 = load ptr, ptr %9, align 8
  %21 = getelementptr inbounds %class.OverlayScrollBar, ptr %17, i32 0, i32 4
  %22 = call noundef nonnull align 8 dereferenceable(24) ptr @_ZN6QImageaSERKS_(ptr noundef nonnull align 8 dereferenceable(24) %21, ptr noundef nonnull align 8 dereferenceable(24) %20)
  %23 = load i32, ptr %10, align 4
  %24 = getelementptr inbounds %class.OverlayScrollBar, ptr %17, i32 0, i32 8
  store i32 %23, ptr %24, align 8
  %25 = load i32, ptr %11, align 4
  %26 = getelementptr inbounds %class.OverlayScrollBar, ptr %17, i32 0, i32 9
  store i32 %25, ptr %26, align 4
  %27 = load i32, ptr %12, align 4
  %28 = getelementptr inbounds %class.OverlayScrollBar, ptr %17, i32 0, i32 10
  store i32 %27, ptr %28, align 8
  %29 = getelementptr inbounds %class.OverlayScrollBar, ptr %17, i32 0, i32 12
  %30 = call noundef nonnull align 8 dereferenceable(24) ptr @_ZN5QListIiEaSERKS0_(ptr noundef nonnull align 8 dereferenceable(24) %29, ptr noundef nonnull align 8 dereferenceable(24) %5) #11
  %31 = load i32, ptr %14, align 4
  %32 = sitofp i32 %31 to double
  %33 = getelementptr inbounds i8, ptr %17, i64 16
  %34 = call noundef double @_ZNK12QPaintDevice16devicePixelRatioEv(ptr noundef nonnull align 8 dereferenceable(10) %33)
  %35 = fcmp ogt double %32, %34
  br i1 %35, label %36, label %39

36:                                               ; preds = %7
  %37 = load i32, ptr %14, align 4
  %38 = sitofp i32 %37 to double
  br label %42

39:                                               ; preds = %7
  %40 = getelementptr inbounds i8, ptr %17, i64 16
  %41 = call noundef double @_ZNK12QPaintDevice16devicePixelRatioEv(ptr noundef nonnull align 8 dereferenceable(10) %40)
  br label %42

42:                                               ; preds = %39, %36
  %43 = phi double [ %38, %36 ], [ %41, %39 ]
  %44 = fptosi double %43 to i32
  %45 = getelementptr inbounds %class.OverlayScrollBar, ptr %17, i32 0, i32 13
  store i32 %44, ptr %45, align 8
  %46 = load i32, ptr %15, align 4
  %47 = getelementptr inbounds %class.OverlayScrollBar, ptr %17, i32 0, i32 4
  %48 = call noundef i32 @_ZNK6QImage5widthEv(ptr noundef nonnull align 8 dereferenceable(24) %47)
  %49 = icmp ne i32 %46, %48
  br i1 %49, label %50, label %60

50:                                               ; preds = %42
  %51 = getelementptr inbounds i8, ptr %17, i64 16
  %52 = call noundef double @_ZNK12QPaintDevice16devicePixelRatioEv(ptr noundef nonnull align 8 dereferenceable(10) %51)
  store double %52, ptr %16, align 8
  %53 = getelementptr inbounds %class.OverlayScrollBar, ptr %17, i32 0, i32 4
  %54 = call noundef i32 @_ZNK6QImage5widthEv(ptr noundef nonnull align 8 dereferenceable(24) %53)
  %55 = sitofp i32 %54 to double
  %56 = load double, ptr %16, align 8
  %57 = fdiv double %55, %56
  %58 = fptosi double %57 to i32
  %59 = getelementptr inbounds %class.OverlayScrollBar, ptr %17, i32 0, i32 6
  store i32 %58, ptr %59, align 8
  call void @_ZN7QWidget14updateGeometryEv(ptr noundef nonnull align 8 dereferenceable(40) %17)
  br label %60

60:                                               ; preds = %50, %42
  call void @_ZN7QWidget6updateEv(ptr noundef nonnull align 8 dereferenceable(40) %17)
  ret void
}